#include <math.h>
#include <stdio.h>
#include <stdlib.h>
#include <string.h>

void main()
{
	int i,n,x[300],max,min,s=0;
	float aver;
	scanf("%d",&n);
	for(i=0;i<n;i++)
		scanf("%d",&x[i]);
	for(i=0;i<n;i++)
	{
		s=s+x[i];
	}
	aver=s*1.0/n;
	max=x[0];min=x[0];
	for(i=1;i<n;i++)
	{
		if(x[i]>max)
			max=x[i];
		else if(x[i]<min)
			min=x[i];
	}
	if(max==min)printf("%d",min);
	else if((max-aver)>(aver-min))
		printf("%d",max);
	else if((max-aver)<(aver-min))
		printf("%d",min);
	else
		printf("%d,%d",min,max);
}