; ModuleID = '21/449.c'
source_filename = "21/449.c"
target datalayout = "e-m:e-p270:32:32-p271:32:32-p272:64:64-i64:64-f80:128-n8:16:32:64-S128"
target triple = "x86_64-pc-linux-gnu"

@.str = private unnamed_addr constant [3 x i8] c"%d\00", align 1
@.str.1 = private unnamed_addr constant [6 x i8] c"%d,%d\00", align 1

; Function Attrs: noinline nounwind uwtable
define dso_local void @main() #0 {
  %1 = alloca i32, align 4
  %2 = alloca i32, align 4
  %3 = alloca [300 x i32], align 16
  %4 = alloca i32, align 4
  %5 = alloca i32, align 4
  %6 = alloca i32, align 4
  %7 = alloca float, align 4
  store i32 0, i32* %6, align 4
  %8 = call i32 (i8*, ...) @__isoc99_scanf(i8* getelementptr inbounds ([3 x i8], [3 x i8]* @.str, i64 0, i64 0), i32* %2)
  store i32 0, i32* %1, align 4
  br label %9

9:                                                ; preds = %18, %0
  %10 = load i32, i32* %1, align 4
  %11 = load i32, i32* %2, align 4
  %12 = icmp slt i32 %10, %11
  br i1 %12, label %13, label %21

13:                                               ; preds = %9
  %14 = load i32, i32* %1, align 4
  %15 = sext i32 %14 to i64
  %16 = getelementptr inbounds [300 x i32], [300 x i32]* %3, i64 0, i64 %15
  %17 = call i32 (i8*, ...) @__isoc99_scanf(i8* getelementptr inbounds ([3 x i8], [3 x i8]* @.str, i64 0, i64 0), i32* %16)
  br label %18

18:                                               ; preds = %13
  %19 = load i32, i32* %1, align 4
  %20 = add nsw i32 %19, 1
  store i32 %20, i32* %1, align 4
  br label %9

21:                                               ; preds = %9
  store i32 0, i32* %1, align 4
  br label %22

22:                                               ; preds = %33, %21
  %23 = load i32, i32* %1, align 4
  %24 = load i32, i32* %2, align 4
  %25 = icmp slt i32 %23, %24
  br i1 %25, label %26, label %36

26:                                               ; preds = %22
  %27 = load i32, i32* %6, align 4
  %28 = load i32, i32* %1, align 4
  %29 = sext i32 %28 to i64
  %30 = getelementptr inbounds [300 x i32], [300 x i32]* %3, i64 0, i64 %29
  %31 = load i32, i32* %30, align 4
  %32 = add nsw i32 %27, %31
  store i32 %32, i32* %6, align 4
  br label %33

33:                                               ; preds = %26
  %34 = load i32, i32* %1, align 4
  %35 = add nsw i32 %34, 1
  store i32 %35, i32* %1, align 4
  br label %22

36:                                               ; preds = %22
  %37 = load i32, i32* %6, align 4
  %38 = sitofp i32 %37 to double
  %39 = fmul double %38, 1.000000e+00
  %40 = load i32, i32* %2, align 4
  %41 = sitofp i32 %40 to double
  %42 = fdiv double %39, %41
  %43 = fptrunc double %42 to float
  store float %43, float* %7, align 4
  %44 = getelementptr inbounds [300 x i32], [300 x i32]* %3, i64 0, i64 0
  %45 = load i32, i32* %44, align 16
  store i32 %45, i32* %4, align 4
  %46 = getelementptr inbounds [300 x i32], [300 x i32]* %3, i64 0, i64 0
  %47 = load i32, i32* %46, align 16
  store i32 %47, i32* %5, align 4
  store i32 1, i32* %1, align 4
  br label %48

48:                                               ; preds = %78, %36
  %49 = load i32, i32* %1, align 4
  %50 = load i32, i32* %2, align 4
  %51 = icmp slt i32 %49, %50
  br i1 %51, label %52, label %81

52:                                               ; preds = %48
  %53 = load i32, i32* %1, align 4
  %54 = sext i32 %53 to i64
  %55 = getelementptr inbounds [300 x i32], [300 x i32]* %3, i64 0, i64 %54
  %56 = load i32, i32* %55, align 4
  %57 = load i32, i32* %4, align 4
  %58 = icmp sgt i32 %56, %57
  br i1 %58, label %59, label %64

59:                                               ; preds = %52
  %60 = load i32, i32* %1, align 4
  %61 = sext i32 %60 to i64
  %62 = getelementptr inbounds [300 x i32], [300 x i32]* %3, i64 0, i64 %61
  %63 = load i32, i32* %62, align 4
  store i32 %63, i32* %4, align 4
  br label %77

64:                                               ; preds = %52
  %65 = load i32, i32* %1, align 4
  %66 = sext i32 %65 to i64
  %67 = getelementptr inbounds [300 x i32], [300 x i32]* %3, i64 0, i64 %66
  %68 = load i32, i32* %67, align 4
  %69 = load i32, i32* %5, align 4
  %70 = icmp slt i32 %68, %69
  br i1 %70, label %71, label %76

71:                                               ; preds = %64
  %72 = load i32, i32* %1, align 4
  %73 = sext i32 %72 to i64
  %74 = getelementptr inbounds [300 x i32], [300 x i32]* %3, i64 0, i64 %73
  %75 = load i32, i32* %74, align 4
  store i32 %75, i32* %5, align 4
  br label %76

76:                                               ; preds = %71, %64
  br label %77

77:                                               ; preds = %76, %59
  br label %78

78:                                               ; preds = %77
  %79 = load i32, i32* %1, align 4
  %80 = add nsw i32 %79, 1
  store i32 %80, i32* %1, align 4
  br label %48

81:                                               ; preds = %48
  %82 = load i32, i32* %4, align 4
  %83 = load i32, i32* %5, align 4
  %84 = icmp eq i32 %82, %83
  br i1 %84, label %85, label %88

85:                                               ; preds = %81
  %86 = load i32, i32* %5, align 4
  %87 = call i32 (i8*, ...) @printf(i8* getelementptr inbounds ([3 x i8], [3 x i8]* @.str, i64 0, i64 0), i32 %86)
  br label %120

88:                                               ; preds = %81
  %89 = load i32, i32* %4, align 4
  %90 = sitofp i32 %89 to float
  %91 = load float, float* %7, align 4
  %92 = fsub float %90, %91
  %93 = load float, float* %7, align 4
  %94 = load i32, i32* %5, align 4
  %95 = sitofp i32 %94 to float
  %96 = fsub float %93, %95
  %97 = fcmp ogt float %92, %96
  br i1 %97, label %98, label %101

98:                                               ; preds = %88
  %99 = load i32, i32* %4, align 4
  %100 = call i32 (i8*, ...) @printf(i8* getelementptr inbounds ([3 x i8], [3 x i8]* @.str, i64 0, i64 0), i32 %99)
  br label %119

101:                                              ; preds = %88
  %102 = load i32, i32* %4, align 4
  %103 = sitofp i32 %102 to float
  %104 = load float, float* %7, align 4
  %105 = fsub float %103, %104
  %106 = load float, float* %7, align 4
  %107 = load i32, i32* %5, align 4
  %108 = sitofp i32 %107 to float
  %109 = fsub float %106, %108
  %110 = fcmp olt float %105, %109
  br i1 %110, label %111, label %114

111:                                              ; preds = %101
  %112 = load i32, i32* %5, align 4
  %113 = call i32 (i8*, ...) @printf(i8* getelementptr inbounds ([3 x i8], [3 x i8]* @.str, i64 0, i64 0), i32 %112)
  br label %118

114:                                              ; preds = %101
  %115 = load i32, i32* %5, align 4
  %116 = load i32, i32* %4, align 4
  %117 = call i32 (i8*, ...) @printf(i8* getelementptr inbounds ([6 x i8], [6 x i8]* @.str.1, i64 0, i64 0), i32 %115, i32 %116)
  br label %118

118:                                              ; preds = %114, %111
  br label %119

119:                                              ; preds = %118, %98
  br label %120

120:                                              ; preds = %119, %85
  ret void
}

declare dso_local i32 @__isoc99_scanf(i8*, ...) #1

declare dso_local i32 @printf(i8*, ...) #1


!llvm.module.flags = !{!0}
!llvm.ident = !{!1}

!0 = !{i32 1, !"wchar_size", i32 4}
!1 = !{!"clang version 10.0.0-4ubuntu1 "}
